; Function Attrs: mustprogress nofree norecurse nosync nounwind willreturn memory(read, inaccessiblemem: none) uwtable
define noundef i32 @_ZNK10open_spiel5oware10OwareBoard10TotalSeedsEv(ptr nocapture noundef nonnull readonly align 8 dereferenceable(56) %0) local_unnamed_addr #6 align 2 {
  %2 = getelementptr inbounds nuw i8, ptr %0, i64 32
  %3 = load ptr, ptr %2, align 8
  %4 = getelementptr inbounds i8, ptr %0, i64 40
  %5 = load ptr, ptr %4, align 8
  %.not17 = icmp eq ptr %3, %5
  br i1 %.not17, label %._crit_edge, label %.lr.ph

.lr.ph:                                           ; preds = %1, %.lr.ph
  %.019 = phi i32 [ %7, %.lr.ph ], [ 0, %1 ]
  %.sroa.013.018 = phi ptr [ %8, %.lr.ph ], [ %3, %1 ]
  %6 = load i32, ptr %.sroa.013.018, align 4
  %7 = add nsw i32 %6, %.019
  %8 = getelementptr inbounds i8, ptr %.sroa.013.018, i64 4
  %.not = icmp eq ptr %8, %5
  br i1 %.not, label %._crit_edge, label %.lr.ph

._crit_edge:                                      ; preds = %.lr.ph, %1
  %.0.lcssa = phi i32 [ 0, %1 ], [ %7, %.lr.ph ]
  %9 = getelementptr inbounds nuw i8, ptr %0, i64 8
  %10 = load ptr, ptr %9, align 8
  %11 = getelementptr inbounds i8, ptr %0, i64 16
  %12 = load ptr, ptr %11, align 8
  %.not1620 = icmp eq ptr %10, %12
  br i1 %.not1620, label %._crit_edge25, label %.lr.ph24

.lr.ph24:                                         ; preds = %._crit_edge, %.lr.ph24
  %.122 = phi i32 [ %14, %.lr.ph24 ], [ %.0.lcssa, %._crit_edge ]
  %.sroa.09.021 = phi ptr [ %15, %.lr.ph24 ], [ %10, %._crit_edge ]
  %13 = load i32, ptr %.sroa.09.021, align 4
  %14 = add nsw i32 %13, %.122
  %15 = getelementptr inbounds i8, ptr %.sroa.09.021, i64 4
  %.not16 = icmp eq ptr %15, %12
  br i1 %.not16, label %._crit_edge25, label %.lr.ph24

._crit_edge25:                                    ; preds = %.lr.ph24, %._crit_edge
  %.1.lcssa = phi i32 [ %.0.lcssa, %._crit_edge ], [ %14, %.lr.ph24 ]
  ret i32 %.1.lcssa
}